; Function Attrs: nounwind uwtable
define internal i32 @io_write(ptr noundef %0) #0 {
  %2 = tail call i32 @lua_getfield(ptr noundef %0, i32 noundef -1001000, ptr noundef nonnull @.str.2) #9
  %3 = tail call ptr @lua_touserdata(ptr noundef %0, i32 noundef -1) #9
  %4 = getelementptr inbounds nuw i8, ptr %3, i64 8
  %5 = load ptr, ptr %4, align 8, !tbaa !9
  %6 = icmp eq ptr %5, null
  br i1 %6, label %7, label %getiofile.exit, !prof !12

7:                                                ; preds = %1
  %8 = tail call i32 (ptr, ptr, ...) @luaL_error(ptr noundef %0, ptr noundef nonnull @.str.18, ptr noundef nonnull getelementptr inbounds nuw (i8, ptr @.str.2, i64 4)) #9
  br label %getiofile.exit

getiofile.exit:                                   ; preds = %1, %7
  %9 = load ptr, ptr %3, align 8, !tbaa !11
  %10 = tail call fastcc i32 @g_write(ptr noundef %0, ptr noundef %9, i32 noundef 1)
  ret i32 %10
}